target datalayout = "e-m:e-p270:32:32-p271:32:32-p272:64:64-i64:64-i128:128-f80:128-n8:16:32:64-S128"
target triple = "x86_64-pc-linux-gnu"

%struct.PS_HintsRec_ = type { ptr, i32, i32, i32, [2 x %struct.PS_DimensionRec_] }
%struct.PS_DimensionRec_ = type { %struct.PS_Hint_TableRec_, %struct.PS_Mask_TableRec_, %struct.PS_Mask_TableRec_ }
%struct.PS_Hint_TableRec_ = type { i32, i32, ptr }
%struct.PS_Mask_TableRec_ = type { i32, i32, ptr }
%struct.PS_Hinter_Module_Rec_ = type { %struct.FT_ModuleRec_, %struct.PS_HintsRec_, %struct.PSH_Globals_FuncsRec_, %struct.T1_Hints_FuncsRec_, %struct.T2_Hints_FuncsRec_ }
%struct.FT_ModuleRec_ = type { ptr, ptr, ptr }
%struct.PSH_Globals_FuncsRec_ = type { ptr, ptr, ptr }
%struct.T1_Hints_FuncsRec_ = type { ptr, ptr, ptr, ptr, ptr, ptr, ptr }
%struct.T2_Hints_FuncsRec_ = type { ptr, ptr, ptr, ptr, ptr, ptr, ptr }

; Function Attrs: nounwind uwtable
define internal void @ps_hints_done(ptr noundef %0) #0 {
  %2 = alloca ptr, align 8
  %3 = alloca ptr, align 8
  store ptr %0, ptr %2, align 8
  %4 = load ptr, ptr %2, align 8
  %5 = getelementptr inbounds %struct.PS_HintsRec_, ptr %4, i32 0, i32 0
  %6 = load ptr, ptr %5, align 8
  store ptr %6, ptr %3, align 8
  %7 = load ptr, ptr %2, align 8
  %8 = getelementptr inbounds %struct.PS_HintsRec_, ptr %7, i32 0, i32 4
  %9 = getelementptr inbounds [2 x %struct.PS_DimensionRec_], ptr %8, i64 0, i64 0
  %10 = load ptr, ptr %3, align 8
  call void @ps_dimension_done(ptr noundef %9, ptr noundef %10)
  %11 = load ptr, ptr %2, align 8
  %12 = getelementptr inbounds %struct.PS_HintsRec_, ptr %11, i32 0, i32 4
  %13 = getelementptr inbounds [2 x %struct.PS_DimensionRec_], ptr %12, i64 0, i64 1
  %14 = load ptr, ptr %3, align 8
  call void @ps_dimension_done(ptr noundef %13, ptr noundef %14)
  %15 = load ptr, ptr %2, align 8
  %16 = getelementptr inbounds %struct.PS_HintsRec_, ptr %15, i32 0, i32 1
  store i32 0, ptr %16, align 8
  %17 = load ptr, ptr %2, align 8
  %18 = getelementptr inbounds %struct.PS_HintsRec_, ptr %17, i32 0, i32 0
  store ptr null, ptr %18, align 8
  ret void
}

; Function Attrs: nounwind uwtable
define internal void @ps_hinter_done(ptr noundef %0) #0 {
  %2 = alloca ptr, align 8
  %3 = alloca ptr, align 8
  store ptr %0, ptr %2, align 8
  %4 = load ptr, ptr %2, align 8
  store ptr %4, ptr %3, align 8
  %5 = load ptr, ptr %3, align 8
  %6 = getelementptr inbounds %struct.PS_Hinter_Module_Rec_, ptr %5, i32 0, i32 3
  %7 = getelementptr inbounds %struct.T1_Hints_FuncsRec_, ptr %6, i32 0, i32 0
  store ptr null, ptr %7, align 8
  %8 = load ptr, ptr %3, align 8
  %9 = getelementptr inbounds %struct.PS_Hinter_Module_Rec_, ptr %8, i32 0, i32 4
  %10 = getelementptr inbounds %struct.T2_Hints_FuncsRec_, ptr %9, i32 0, i32 0
  store ptr null, ptr %10, align 8
  %11 = load ptr, ptr %3, align 8
  %12 = getelementptr inbounds %struct.PS_Hinter_Module_Rec_, ptr %11, i32 0, i32 1
  call void @ps_hints_done(ptr noundef %12)
  ret void
}