; Function Attrs: nounwind uwtable
define internal void @ps_hinter_done(ptr nocapture noundef %0) #0 {
  %2 = getelementptr inbounds i8, ptr %0, i64 168
  store ptr null, ptr %2, align 8
  %3 = getelementptr inbounds i8, ptr %0, i64 224
  store ptr null, ptr %3, align 8
  %4 = getelementptr inbounds i8, ptr %0, i64 24
  %5 = load ptr, ptr %4, align 8
  %6 = getelementptr inbounds i8, ptr %0, i64 48
  tail call fastcc void @ps_dimension_done(ptr noundef nonnull %6, ptr noundef %5)
  %7 = getelementptr inbounds i8, ptr %0, i64 96
  tail call fastcc void @ps_dimension_done(ptr noundef nonnull %7, ptr noundef %5)
  %8 = getelementptr inbounds i8, ptr %0, i64 32
  store i32 0, ptr %8, align 8
  store ptr null, ptr %4, align 8
  ret void
}